; Function Attrs: mustprogress uwtable
define hidden noundef zeroext i1 @_ZN3fpa6solver5visitEP4expr(ptr noundef nonnull align 8 dereferenceable(1556) %this, ptr noundef %e) unnamed_addr #3 align 2 {
entry:
  %vtable = load ptr, ptr %this, align 8
  %vfn = getelementptr inbounds i8, ptr %vtable, i64 528
  %0 = load ptr, ptr %vfn, align 8
  %call = tail call noundef zeroext i1 %0(ptr noundef nonnull align 8 dereferenceable(1556) %this, ptr noundef %e)
  br i1 %call, label %return, label %if.end

if.end:                                           ; preds = %entry
  %m_kind.i.i = getelementptr inbounds i8, ptr %e, i64 4
  %bf.load.i.i = load i32, ptr %m_kind.i.i, align 4
  %bf.clear.i.i = and i32 %bf.load.i.i, 65535
  %cmp.i = icmp eq i32 %bf.clear.i.i, 0
  br i1 %cmp.i, label %lor.lhs.false, label %if.then6

lor.lhs.false:                                    ; preds = %if.end
  %m_decl.i.i = getelementptr inbounds i8, ptr %e, i64 16
  %1 = load ptr, ptr %m_decl.i.i, align 8
  %m_info.i.i = getelementptr inbounds i8, ptr %1, i64 24
  %2 = load ptr, ptr %m_info.i.i, align 8
  %cmp.i.i = icmp eq ptr %2, null
  br i1 %cmp.i.i, label %_ZNK3app13get_family_idEv.exit, label %cond.false.i.i

cond.false.i.i:                                   ; preds = %lor.lhs.false
  %3 = load i32, ptr %2, align 8
  br label %_ZNK3app13get_family_idEv.exit

_ZNK3app13get_family_idEv.exit:                   ; preds = %lor.lhs.false, %cond.false.i.i
  %cond.i.i = phi i32 [ %3, %cond.false.i.i ], [ -1, %lor.lhs.false ]
  %m_id.i = getelementptr inbounds i8, ptr %this, i64 12
  %4 = load i32, ptr %m_id.i, align 4
  %cmp.not = icmp eq i32 %cond.i.i, %4
  br i1 %cmp.not, label %if.end9, label %if.then6

if.then6:                                         ; preds = %_ZNK3app13get_family_idEv.exit, %if.end
  %ctx = getelementptr inbounds i8, ptr %this, i64 80
  %5 = load ptr, ptr %ctx, align 8
  %vtable7 = load ptr, ptr %5, align 8
  %vfn8 = getelementptr inbounds i8, ptr %vtable7, i64 440
  %6 = load ptr, ptr %vfn8, align 8
  tail call void %6(ptr noundef nonnull align 8 dereferenceable(9136) %5, ptr noundef nonnull %e)
  br label %return

if.end9:                                          ; preds = %_ZNK3app13get_family_idEv.exit
  %m_stack = getelementptr inbounds i8, ptr %this, i64 64
  %7 = load ptr, ptr %m_stack, align 8
  %cmp.i5 = icmp eq ptr %7, null
  br i1 %cmp.i5, label %if.then.i, label %lor.lhs.false.i

lor.lhs.false.i:                                  ; preds = %if.end9
  %arrayidx.i = getelementptr inbounds i8, ptr %7, i64 -4
  %8 = load i32, ptr %arrayidx.i, align 4
  %arrayidx4.i = getelementptr inbounds i8, ptr %7, i64 -8
  %9 = load i32, ptr %arrayidx4.i, align 4
  %cmp5.i = icmp eq i32 %8, %9
  br i1 %cmp5.i, label %if.then.i, label %_ZN6vectorIN3sat6eframeELb0EjE9push_backEOS1_.exit

if.then.i:                                        ; preds = %lor.lhs.false.i, %if.end9
  tail call void @_ZN6vectorIN3sat6eframeELb0EjE13expand_vectorEv(ptr noundef nonnull align 8 dereferenceable(8) %m_stack)
  %.pre.i = load ptr, ptr %m_stack, align 8
  %arrayidx8.phi.trans.insert.i = getelementptr inbounds i8, ptr %.pre.i, i64 -4
  %.pre1.i = load i32, ptr %arrayidx8.phi.trans.insert.i, align 4
  br label %_ZN6vectorIN3sat6eframeELb0EjE9push_backEOS1_.exit

_ZN6vectorIN3sat6eframeELb0EjE9push_backEOS1_.exit: ; preds = %lor.lhs.false.i, %if.then.i
  %10 = phi i32 [ %.pre1.i, %if.then.i ], [ %8, %lor.lhs.false.i ]
  %11 = phi ptr [ %.pre.i, %if.then.i ], [ %7, %lor.lhs.false.i ]
  %idx.ext.i = zext i32 %10 to i64
  %add.ptr.i = getelementptr inbounds %"struct.sat::eframe", ptr %11, i64 %idx.ext.i
  store ptr %e, ptr %add.ptr.i, align 8
  %ref.tmp.sroa.2.0.add.ptr.i.sroa_idx = getelementptr inbounds i8, ptr %add.ptr.i, i64 8
  store i32 0, ptr %ref.tmp.sroa.2.0.add.ptr.i.sroa_idx, align 8
  %12 = load ptr, ptr %m_stack, align 8
  %arrayidx10.i = getelementptr inbounds i8, ptr %12, i64 -4
  %13 = load i32, ptr %arrayidx10.i, align 4
  %inc.i = add i32 %13, 1
  store i32 %inc.i, ptr %arrayidx10.i, align 4
  br label %return

return:                                           ; preds = %entry, %_ZN6vectorIN3sat6eframeELb0EjE9push_backEOS1_.exit, %if.then6
  %retval.0 = phi i1 [ true, %if.then6 ], [ false, %_ZN6vectorIN3sat6eframeELb0EjE9push_backEOS1_.exit ], [ true, %entry ]
  ret i1 %retval.0
}